; Function Attrs: nounwind uwtable
define dso_local ptr @pub_collist_to_bitmapset(ptr noundef %0, i64 noundef %1, ptr noundef %2) local_unnamed_addr #0 {
  %4 = inttoptr i64 %1 to ptr
  %5 = tail call ptr @pg_detoast_datum(ptr noundef %4) #6
  %6 = getelementptr inbounds nuw i8, ptr %5, i64 16
  %7 = load i32, ptr %6, align 4
  %8 = getelementptr inbounds nuw i8, ptr %5, i64 8
  %9 = load i32, ptr %8, align 4
  %.not = icmp eq i32 %9, 0
  br i1 %.not, label %12, label %10

10:                                               ; preds = %3
  %11 = sext i32 %9 to i64
  br label %19

12:                                               ; preds = %3
  %13 = getelementptr inbounds nuw i8, ptr %5, i64 4
  %14 = load i32, ptr %13, align 4
  %15 = sext i32 %14 to i64
  %16 = shl nsw i64 %15, 3
  %17 = add nsw i64 %16, 23
  %18 = and i64 %17, -8
  br label %19

19:                                               ; preds = %12, %10
  %20 = phi i64 [ %11, %10 ], [ %18, %12 ]
  %21 = getelementptr inbounds nuw i8, ptr %5, i64 %20
  %.not21 = icmp eq ptr %2, null
  br i1 %.not21, label %24, label %22

22:                                               ; preds = %19
  %23 = load ptr, ptr @CurrentMemoryContext, align 8
  store ptr %2, ptr @CurrentMemoryContext, align 8
  br label %24

24:                                               ; preds = %22, %19
  %.017 = phi ptr [ %23, %22 ], [ null, %19 ]
  %25 = icmp sgt i32 %7, 0
  br i1 %25, label %.lr.ph.preheader, label %._crit_edge

.lr.ph.preheader:                                 ; preds = %24
  %wide.trip.count = zext nneg i32 %7 to i64
  br label %.lr.ph

._crit_edge:                                      ; preds = %.lr.ph, %24
  %.018.lcssa = phi ptr [ %0, %24 ], [ %29, %.lr.ph ]
  br i1 %.not21, label %31, label %30

.lr.ph:                                           ; preds = %.lr.ph.preheader, %.lr.ph
  %indvars.iv = phi i64 [ 0, %.lr.ph.preheader ], [ %indvars.iv.next, %.lr.ph ]
  %.01822 = phi ptr [ %0, %.lr.ph.preheader ], [ %29, %.lr.ph ]
  %26 = getelementptr inbounds nuw i16, ptr %21, i64 %indvars.iv
  %27 = load i16, ptr %26, align 2
  %28 = sext i16 %27 to i32
  %29 = tail call ptr @bms_add_member(ptr noundef %.01822, i32 noundef %28) #6
  %indvars.iv.next = add nuw nsw i64 %indvars.iv, 1
  %exitcond.not = icmp eq i64 %indvars.iv.next, %wide.trip.count
  br i1 %exitcond.not, label %._crit_edge, label %.lr.ph, !llvm.loop !6

30:                                               ; preds = %._crit_edge
  store ptr %.017, ptr @CurrentMemoryContext, align 8
  br label %31

31:                                               ; preds = %30, %._crit_edge
  ret ptr %.018.lcssa
}